target datalayout = "e-m:e-p270:32:32-p271:32:32-p272:64:64-i64:64-i128:128-f80:128-n8:16:32:64-S128"
target triple = "x86_64-pc-linux-gnu"

%struct.ctl_entry_t = type { i16, i16, [1024 x i8], i8, i8 }

@.str.32 = private unnamed_addr constant [18 x i8] c"SlurmctldPort=%u\0A\00", align 1
@.str.33 = private unnamed_addr constant [18 x i8] c"SlurmctldHost=%s\0A\00", align 1

; Function Attrs: nounwind uwtable
define internal i32 @_print_controllers(ptr noundef %0, ptr noundef %1) #0 {
  %3 = alloca ptr, align 8
  %4 = alloca ptr, align 8
  %5 = alloca ptr, align 8
  %6 = alloca ptr, align 8
  store ptr %0, ptr %3, align 8
  store ptr %1, ptr %4, align 8
  call void @llvm.lifetime.start.p0(i64 8, ptr %5) #9
  %7 = load ptr, ptr %3, align 8
  store ptr %7, ptr %5, align 8
  call void @llvm.lifetime.start.p0(i64 8, ptr %6) #9
  %8 = load ptr, ptr %4, align 8
  store ptr %8, ptr %6, align 8
  %9 = load ptr, ptr %6, align 8
  %10 = load ptr, ptr %9, align 8
  %11 = icmp ne ptr %10, null
  br i1 %11, label %18, label %12

12:                                               ; preds = %2
  %13 = load ptr, ptr %6, align 8
  %14 = load ptr, ptr %5, align 8
  %15 = getelementptr inbounds nuw %struct.ctl_entry_t, ptr %14, i32 0, i32 1
  %16 = load i16, ptr %15, align 2
  %17 = zext i16 %16 to i32
  call void (ptr, ptr, ...) @_xstrfmtcat(ptr noundef %13, ptr noundef @.str.32, i32 noundef %17)
  br label %18

18:                                               ; preds = %12, %2
  %19 = load ptr, ptr %6, align 8
  %20 = load ptr, ptr %5, align 8
  %21 = getelementptr inbounds nuw %struct.ctl_entry_t, ptr %20, i32 0, i32 2
  %22 = getelementptr inbounds [1024 x i8], ptr %21, i64 0, i64 0
  call void (ptr, ptr, ...) @_xstrfmtcat(ptr noundef %19, ptr noundef @.str.33, ptr noundef %22)
  call void @llvm.lifetime.end.p0(i64 8, ptr %6) #9
  call void @llvm.lifetime.end.p0(i64 8, ptr %5) #9
  ret i32 0
}