; Function Attrs: nounwind uwtable
define internal noundef i32 @_print_controllers(ptr noundef %0, ptr noundef %1) #0 {
  %3 = load ptr, ptr %1, align 8
  %.not = icmp eq ptr %3, null
  br i1 %.not, label %4, label %8

4:                                                ; preds = %2
  %5 = getelementptr inbounds nuw i8, ptr %0, i64 2
  %6 = load i16, ptr %5, align 2
  %7 = zext i16 %6 to i32
  tail call void (ptr, ptr, ...) @_xstrfmtcat(ptr noundef nonnull %1, ptr noundef nonnull @.str.32, i32 noundef %7) #12
  br label %8

8:                                                ; preds = %4, %2
  %9 = getelementptr inbounds nuw i8, ptr %0, i64 4
  tail call void (ptr, ptr, ...) @_xstrfmtcat(ptr noundef nonnull %1, ptr noundef nonnull @.str.33, ptr noundef nonnull %9) #12
  ret i32 0
}